target datalayout = "e-m:e-p270:32:32-p271:32:32-p272:64:64-i64:64-i128:128-f80:128-n8:16:32:64-S128"
target triple = "x86_64-pc-linux-gnu"

%class.ZMark = type <{ ptr, ptr, [48 x i8], %class.ZMarkStackAllocator, %class.ZMarkStripeSet, %class.ZMarkTerminate, i64, i64, i64, i64, i64, i64, i32, [36 x i8] }>
%class.ZMarkStackAllocator = type <{ [64 x i8], %class.ZMarkStackSpace, [56 x i8], %class.ZStackList, i8, [63 x i8] }>
%class.ZMarkStackSpace = type <{ %class.ZLock, i64, i64, i64, i8, [7 x i8] }>
%class.ZLock = type { %class.PlatformMutex }
%class.PlatformMutex = type { %union.pthread_mutex_t }
%union.pthread_mutex_t = type { %struct.__pthread_mutex_s }
%struct.__pthread_mutex_s = type { i32, i32, i32, i32, i32, i16, i16, %struct.__pthread_internal_list }
%struct.__pthread_internal_list = type { ptr, ptr }
%class.ZStackList = type { i64, ptr, [48 x i8] }
%class.ZMarkStripeSet = type { i64, [56 x i8], [16 x %class.ZMarkStripe] }
%class.ZMarkStripe = type { %class.ZStackList.1, %class.ZStackList.1 }
%class.ZStackList.1 = type { i64, ptr, [48 x i8] }
%class.ZMarkTerminate = type { i32, i32, i32, i8, %class.ZConditionLock }
%class.ZConditionLock = type { %class.PlatformMonitor }
%class.PlatformMonitor = type { %class.PlatformMutex, %union.pthread_cond_t }
%union.pthread_cond_t = type { %struct.__pthread_cond_s }
%struct.__pthread_cond_s = type { %union.__atomic_wide_counter, %union.__atomic_wide_counter, [2 x i32], [2 x i32], i32, i32, [2 x i32] }
%union.__atomic_wide_counter = type { i64 }

; Function Attrs: mustprogress nounwind uwtable
define linkonce_odr hidden void @_ZN14ZConditionLockC2Ev(ptr noundef nonnull align 8 dereferenceable(88) %0) unnamed_addr #1 comdat align 2 {
  %2 = alloca ptr, align 8
  store ptr %0, ptr %2, align 8
  %3 = load ptr, ptr %2, align 8
  %4 = getelementptr inbounds %class.ZConditionLock, ptr %3, i32 0, i32 0
  call void @_ZN15PlatformMonitorC1Ev(ptr noundef nonnull align 8 dereferenceable(88) %4)
  ret void
}

; Function Attrs: mustprogress nounwind uwtable
define linkonce_odr hidden void @_ZN14ZMarkTerminateC2Ev(ptr noundef nonnull align 8 dereferenceable(104) %0) unnamed_addr #1 comdat align 2 {
  %2 = alloca ptr, align 8
  store ptr %0, ptr %2, align 8
  %3 = load ptr, ptr %2, align 8
  %4 = getelementptr inbounds %class.ZMarkTerminate, ptr %3, i32 0, i32 0
  store i32 0, ptr %4, align 8
  %5 = getelementptr inbounds %class.ZMarkTerminate, ptr %3, i32 0, i32 1
  store volatile i32 0, ptr %5, align 4
  %6 = getelementptr inbounds %class.ZMarkTerminate, ptr %3, i32 0, i32 2
  store volatile i32 0, ptr %6, align 8
  %7 = getelementptr inbounds %class.ZMarkTerminate, ptr %3, i32 0, i32 3
  store volatile i8 0, ptr %7, align 4
  %8 = getelementptr inbounds %class.ZMarkTerminate, ptr %3, i32 0, i32 4
  call void @llvm.memset.p0.i64(ptr align 8 %8, i8 0, i64 88, i1 false)
  call void @_ZN14ZConditionLockC2Ev(ptr noundef nonnull align 8 dereferenceable(88) %8)
  ret void
}

; Function Attrs: mustprogress nounwind uwtable
define hidden void @_ZN5ZMarkC2EP11ZGenerationP10ZPageTable(ptr noundef nonnull align 64 dereferenceable(2652) %0, ptr noundef %1, ptr noundef %2) unnamed_addr #1 align 2 {
  %4 = alloca ptr, align 8
  %5 = alloca ptr, align 8
  %6 = alloca ptr, align 8
  store ptr %0, ptr %4, align 8
  store ptr %1, ptr %5, align 8
  store ptr %2, ptr %6, align 8
  %7 = load ptr, ptr %4, align 8
  %8 = getelementptr inbounds %class.ZMark, ptr %7, i32 0, i32 0
  %9 = load ptr, ptr %5, align 8
  store ptr %9, ptr %8, align 64
  %10 = getelementptr inbounds %class.ZMark, ptr %7, i32 0, i32 1
  %11 = load ptr, ptr %6, align 8
  store ptr %11, ptr %10, align 8
  %12 = getelementptr inbounds %class.ZMark, ptr %7, i32 0, i32 3
  call void @_ZN19ZMarkStackAllocatorC1Ev(ptr noundef nonnull align 64 dereferenceable(257) %12)
  %13 = getelementptr inbounds %class.ZMark, ptr %7, i32 0, i32 4
  %14 = getelementptr inbounds %class.ZMark, ptr %7, i32 0, i32 3
  %15 = call noundef i64 @_ZNK19ZMarkStackAllocator5startEv(ptr noundef nonnull align 64 dereferenceable(257) %14)
  call void @_ZN14ZMarkStripeSetC1Em(ptr noundef nonnull align 64 dereferenceable(2112) %13, i64 noundef %15)
  %16 = getelementptr inbounds %class.ZMark, ptr %7, i32 0, i32 5
  call void @_ZN14ZMarkTerminateC2Ev(ptr noundef nonnull align 8 dereferenceable(104) %16)
  %17 = getelementptr inbounds %class.ZMark, ptr %7, i32 0, i32 6
  store volatile i64 0, ptr %17, align 8
  %18 = getelementptr inbounds %class.ZMark, ptr %7, i32 0, i32 7
  store volatile i64 0, ptr %18, align 16
  %19 = getelementptr inbounds %class.ZMark, ptr %7, i32 0, i32 8
  store i64 0, ptr %19, align 8
  %20 = getelementptr inbounds %class.ZMark, ptr %7, i32 0, i32 9
  store i64 0, ptr %20, align 64
  %21 = getelementptr inbounds %class.ZMark, ptr %7, i32 0, i32 10
  store i64 0, ptr %21, align 8
  %22 = getelementptr inbounds %class.ZMark, ptr %7, i32 0, i32 11
  store i64 0, ptr %22, align 16
  %23 = getelementptr inbounds %class.ZMark, ptr %7, i32 0, i32 12
  store i32 0, ptr %23, align 8
  ret void
}