; Function Attrs: mustprogress nounwind uwtable
define hidden void @_ZN5ZMarkC2EP11ZGenerationP10ZPageTable(ptr noundef nonnull align 64 dereferenceable(2652) %0, ptr noundef %1, ptr noundef %2) unnamed_addr #0 align 2 {
  store ptr %1, ptr %0, align 64
  %4 = getelementptr inbounds i8, ptr %0, i64 8
  store ptr %2, ptr %4, align 8
  %5 = getelementptr inbounds i8, ptr %0, i64 64
  tail call void @_ZN19ZMarkStackAllocatorC1Ev(ptr noundef nonnull align 64 dereferenceable(257) %5) #15
  %6 = getelementptr inbounds i8, ptr %0, i64 384
  %7 = tail call noundef i64 @_ZNK19ZMarkStackAllocator5startEv(ptr noundef nonnull align 64 dereferenceable(257) %5) #15
  tail call void @_ZN14ZMarkStripeSetC1Em(ptr noundef nonnull align 64 dereferenceable(2112) %6, i64 noundef %7) #15
  %8 = getelementptr inbounds i8, ptr %0, i64 2496
  store i32 0, ptr %8, align 64
  %9 = getelementptr inbounds i8, ptr %0, i64 2500
  store volatile i32 0, ptr %9, align 4
  %10 = getelementptr inbounds i8, ptr %0, i64 2504
  store volatile i32 0, ptr %10, align 8
  %11 = getelementptr inbounds i8, ptr %0, i64 2508
  store volatile i8 0, ptr %11, align 4
  %12 = getelementptr inbounds i8, ptr %0, i64 2512
  tail call void @llvm.memset.p0.i64(ptr noundef nonnull align 16 dereferenceable(88) %12, i8 0, i64 88, i1 false)
  tail call void @_ZN15PlatformMonitorC1Ev(ptr noundef nonnull align 8 dereferenceable(88) %12) #15
  %13 = getelementptr inbounds i8, ptr %0, i64 2600
  store volatile i64 0, ptr %13, align 8
  %14 = getelementptr inbounds i8, ptr %0, i64 2608
  store volatile i64 0, ptr %14, align 16
  %15 = getelementptr inbounds i8, ptr %0, i64 2616
  tail call void @llvm.memset.p0.i64(ptr noundef nonnull align 8 dereferenceable(36) %15, i8 0, i64 36, i1 false)
  ret void
}